target datalayout = "e-m:e-p270:32:32-p271:32:32-p272:64:64-i64:64-i128:128-f80:128-n8:16:32:64-S128"
target triple = "x86_64-pc-linux-gnu"

%"class.cv::cuda::GpuMat" = type { i32, i32, i32, i64, ptr, ptr, ptr, ptr, ptr }
%"class.cv::Size_" = type { i32, i32 }

; Function Attrs: mustprogress uwtable
define void @_ZN2cv4cuda6GpuMat20updateContinuityFlagEv(ptr noundef nonnull align 8 dereferenceable(64) %0) #0 align 2 {
  %2 = alloca ptr, align 8
  %3 = alloca [2 x i32], align 4
  %4 = alloca [2 x i64], align 16
  store ptr %0, ptr %2, align 8, !tbaa !3
  %5 = load ptr, ptr %2, align 8
  call void @llvm.lifetime.start.p0(i64 8, ptr %3) #13
  %6 = getelementptr inbounds nuw %"class.cv::cuda::GpuMat", ptr %5, i32 0, i32 1
  %7 = load i32, ptr %6, align 4, !tbaa !8
  store i32 %7, ptr %3, align 4, !tbaa !15
  %8 = getelementptr inbounds i32, ptr %3, i64 1
  %9 = getelementptr inbounds nuw %"class.cv::cuda::GpuMat", ptr %5, i32 0, i32 2
  %10 = load i32, ptr %9, align 8, !tbaa !16
  store i32 %10, ptr %8, align 4, !tbaa !15
  call void @llvm.lifetime.start.p0(i64 16, ptr %4) #13
  %11 = getelementptr inbounds nuw %"class.cv::cuda::GpuMat", ptr %5, i32 0, i32 3
  %12 = load i64, ptr %11, align 8, !tbaa !17
  store i64 %12, ptr %4, align 8, !tbaa !18
  %13 = getelementptr inbounds i64, ptr %4, i64 1
  %14 = call noundef i64 @_ZNK2cv4cuda6GpuMat8elemSizeEv(ptr noundef nonnull align 8 dereferenceable(64) %5)
  store i64 %14, ptr %13, align 8, !tbaa !18
  %15 = getelementptr inbounds nuw %"class.cv::cuda::GpuMat", ptr %5, i32 0, i32 0
  %16 = load i32, ptr %15, align 8, !tbaa !19
  %17 = getelementptr inbounds [2 x i32], ptr %3, i64 0, i64 0
  %18 = getelementptr inbounds [2 x i64], ptr %4, i64 0, i64 0
  %19 = call noundef i32 @_ZN2cv20updateContinuityFlagEiiPKiPKm(i32 noundef %16, i32 noundef 2, ptr noundef %17, ptr noundef %18)
  %20 = getelementptr inbounds nuw %"class.cv::cuda::GpuMat", ptr %5, i32 0, i32 0
  store i32 %19, ptr %20, align 8, !tbaa !19
  call void @llvm.lifetime.end.p0(i64 16, ptr %4) #13
  call void @llvm.lifetime.end.p0(i64 8, ptr %3) #13
  ret void
}

; Function Attrs: inlinehint mustprogress nounwind uwtable
define linkonce_odr hidden noundef i64 @_ZNK2cv4cuda6GpuMat8elemSizeEv(ptr noundef nonnull align 8 dereferenceable(64) %0) #2 comdat align 2 {
  %2 = alloca ptr, align 8
  store ptr %0, ptr %2, align 8, !tbaa !3
  %3 = load ptr, ptr %2, align 8
  %4 = getelementptr inbounds nuw %"class.cv::cuda::GpuMat", ptr %3, i32 0, i32 0
  %5 = load i32, ptr %4, align 8, !tbaa !19
  %6 = and i32 %5, 4088
  %7 = ashr i32 %6, 3
  %8 = add nsw i32 %7, 1
  %9 = getelementptr inbounds nuw %"class.cv::cuda::GpuMat", ptr %3, i32 0, i32 0
  %10 = load i32, ptr %9, align 8, !tbaa !19
  %11 = and i32 %10, 7
  %12 = mul nsw i32 %11, 4
  %13 = ashr i32 675553809, %12
  %14 = and i32 %13, 15
  %15 = mul nsw i32 %8, %14
  %16 = sext i32 %15 to i64
  ret i64 %16
}

; Function Attrs: mustprogress nounwind uwtable
define noundef ptr @_ZN2cv4cuda6GpuMat16defaultAllocatorEv() #4 align 2 {
  ret ptr null
}

; Function Attrs: mustprogress uwtable
define void @_ZN2cv4cuda6GpuMatC2ENS_5Size_IiEEiPvm(ptr noundef nonnull align 8 dereferenceable(64) %0, i64 %1, i32 noundef %2, ptr noundef %3, i64 noundef %4) unnamed_addr #0 align 2 {
  %6 = alloca %"class.cv::Size_", align 4
  %7 = alloca ptr, align 8
  %8 = alloca i32, align 4
  %9 = alloca ptr, align 8
  %10 = alloca i64, align 8
  %11 = alloca i64, align 8
  store i64 %1, ptr %6, align 4
  store ptr %0, ptr %7, align 8, !tbaa !3
  store i32 %2, ptr %8, align 4, !tbaa !15
  store ptr %3, ptr %9, align 8, !tbaa !20
  store i64 %4, ptr %10, align 8, !tbaa !18
  %12 = load ptr, ptr %7, align 8
  %13 = getelementptr inbounds nuw %"class.cv::cuda::GpuMat", ptr %12, i32 0, i32 0
  %14 = load i32, ptr %8, align 4, !tbaa !15
  %15 = and i32 %14, 4095
  %16 = add i32 1124007936, %15
  store i32 %16, ptr %13, align 8, !tbaa !19
  %17 = getelementptr inbounds nuw %"class.cv::cuda::GpuMat", ptr %12, i32 0, i32 1
  %18 = getelementptr inbounds nuw %"class.cv::Size_", ptr %6, i32 0, i32 1
  %19 = load i32, ptr %18, align 4, !tbaa !26
  store i32 %19, ptr %17, align 4, !tbaa !8
  %20 = getelementptr inbounds nuw %"class.cv::cuda::GpuMat", ptr %12, i32 0, i32 2
  %21 = getelementptr inbounds nuw %"class.cv::Size_", ptr %6, i32 0, i32 0
  %22 = load i32, ptr %21, align 4, !tbaa !28
  store i32 %22, ptr %20, align 8, !tbaa !16
  %23 = getelementptr inbounds nuw %"class.cv::cuda::GpuMat", ptr %12, i32 0, i32 3
  %24 = load i64, ptr %10, align 8, !tbaa !18
  store i64 %24, ptr %23, align 8, !tbaa !17
  %25 = getelementptr inbounds nuw %"class.cv::cuda::GpuMat", ptr %12, i32 0, i32 4
  %26 = load ptr, ptr %9, align 8, !tbaa !20
  store ptr %26, ptr %25, align 8, !tbaa !21
  %27 = getelementptr inbounds nuw %"class.cv::cuda::GpuMat", ptr %12, i32 0, i32 5
  store ptr null, ptr %27, align 8, !tbaa !22
  %28 = getelementptr inbounds nuw %"class.cv::cuda::GpuMat", ptr %12, i32 0, i32 6
  %29 = load ptr, ptr %9, align 8, !tbaa !20
  store ptr %29, ptr %28, align 8, !tbaa !23
  %30 = getelementptr inbounds nuw %"class.cv::cuda::GpuMat", ptr %12, i32 0, i32 7
  %31 = load ptr, ptr %9, align 8, !tbaa !20
  store ptr %31, ptr %30, align 8, !tbaa !24
  %32 = getelementptr inbounds nuw %"class.cv::cuda::GpuMat", ptr %12, i32 0, i32 8
  %33 = call noundef ptr @_ZN2cv4cuda6GpuMat16defaultAllocatorEv()
  store ptr %33, ptr %32, align 8, !tbaa !25
  call void @llvm.lifetime.start.p0(i64 8, ptr %11) #13
  %34 = getelementptr inbounds nuw %"class.cv::cuda::GpuMat", ptr %12, i32 0, i32 2
  %35 = load i32, ptr %34, align 8, !tbaa !16
  %36 = sext i32 %35 to i64
  %37 = call noundef i64 @_ZNK2cv4cuda6GpuMat8elemSizeEv(ptr noundef nonnull align 8 dereferenceable(64) %12)
  %38 = mul i64 %36, %37
  store i64 %38, ptr %11, align 8, !tbaa !18
  %39 = getelementptr inbounds nuw %"class.cv::cuda::GpuMat", ptr %12, i32 0, i32 3
  %40 = load i64, ptr %39, align 8, !tbaa !17
  %41 = icmp eq i64 %40, 0
  br i1 %41, label %42, label %45

42:                                               ; preds = %5
  %43 = load i64, ptr %11, align 8, !tbaa !18
  %44 = getelementptr inbounds nuw %"class.cv::cuda::GpuMat", ptr %12, i32 0, i32 3
  store i64 %43, ptr %44, align 8, !tbaa !17
  br label %53

45:                                               ; preds = %5
  %46 = getelementptr inbounds nuw %"class.cv::cuda::GpuMat", ptr %12, i32 0, i32 1
  %47 = load i32, ptr %46, align 4, !tbaa !8
  %48 = icmp eq i32 %47, 1
  br i1 %48, label %49, label %52

49:                                               ; preds = %45
  %50 = load i64, ptr %11, align 8, !tbaa !18
  %51 = getelementptr inbounds nuw %"class.cv::cuda::GpuMat", ptr %12, i32 0, i32 3
  store i64 %50, ptr %51, align 8, !tbaa !17
  br label %52

52:                                               ; preds = %49, %45
  br label %53

53:                                               ; preds = %52, %42
  %54 = getelementptr inbounds nuw %"class.cv::cuda::GpuMat", ptr %12, i32 0, i32 3
  %55 = load i64, ptr %54, align 8, !tbaa !17
  %56 = getelementptr inbounds nuw %"class.cv::cuda::GpuMat", ptr %12, i32 0, i32 1
  %57 = load i32, ptr %56, align 4, !tbaa !8
  %58 = sub nsw i32 %57, 1
  %59 = sext i32 %58 to i64
  %60 = mul i64 %55, %59
  %61 = load i64, ptr %11, align 8, !tbaa !18
  %62 = add i64 %60, %61
  %63 = getelementptr inbounds nuw %"class.cv::cuda::GpuMat", ptr %12, i32 0, i32 7
  %64 = load ptr, ptr %63, align 8, !tbaa !24
  %65 = getelementptr inbounds nuw i8, ptr %64, i64 %62
  store ptr %65, ptr %63, align 8, !tbaa !24
  call void @_ZN2cv4cuda6GpuMat20updateContinuityFlagEv(ptr noundef nonnull align 8 dereferenceable(64) %12)
  call void @llvm.lifetime.end.p0(i64 8, ptr %11) #13
  ret void
}