; Function Attrs: mustprogress uwtable
define void @_ZN2cv4cuda6GpuMatC2ENS_5Size_IiEEiPvm(ptr noundef nonnull writeonly align 8 captures(none) dereferenceable(64) initializes((0, 12), (16, 64)) %0, i64 %1, i32 noundef %2, ptr noundef %3, i64 noundef %4) unnamed_addr #0 align 2 {
  %6 = alloca [2 x i32], align 4
  %7 = alloca [2 x i64], align 16
  %.sroa.0.0.extract.trunc = trunc i64 %1 to i32
  %.sroa.2.0.extract.shift = lshr i64 %1, 32
  %.sroa.2.0.extract.trunc = trunc nuw i64 %.sroa.2.0.extract.shift to i32
  %8 = and i32 %2, 4095
  %9 = or disjoint i32 %8, 1124007936
  store i32 %9, ptr %0, align 8, !tbaa !17
  %10 = getelementptr inbounds nuw i8, ptr %0, i64 4
  store i32 %.sroa.2.0.extract.trunc, ptr %10, align 4, !tbaa !3
  %11 = getelementptr inbounds nuw i8, ptr %0, i64 8
  store i32 %.sroa.0.0.extract.trunc, ptr %11, align 8, !tbaa !14
  %12 = getelementptr inbounds nuw i8, ptr %0, i64 16
  store i64 %4, ptr %12, align 8, !tbaa !15
  %13 = getelementptr inbounds nuw i8, ptr %0, i64 24
  store ptr %3, ptr %13, align 8, !tbaa !18
  %14 = getelementptr inbounds nuw i8, ptr %0, i64 32
  store ptr null, ptr %14, align 8, !tbaa !19
  %15 = getelementptr inbounds nuw i8, ptr %0, i64 40
  store ptr %3, ptr %15, align 8, !tbaa !20
  %16 = getelementptr inbounds nuw i8, ptr %0, i64 56
  store ptr null, ptr %16, align 8, !tbaa !21
  %sext = shl i64 %1, 32
  %17 = ashr exact i64 %sext, 32
  %18 = lshr i32 %2, 3
  %19 = and i32 %18, 511
  %20 = add nuw nsw i32 %19, 1
  %21 = shl nuw nsw i32 %8, 2
  %22 = and i32 %21, 28
  %23 = lshr i32 675553809, %22
  %24 = and i32 %23, 15
  %25 = mul nuw nsw i32 %24, %20
  %26 = zext nneg i32 %25 to i64
  %27 = mul nsw i64 %17, %26
  %28 = icmp eq i64 %4, 0
  %29 = icmp eq i64 %.sroa.2.0.extract.shift, 1
  %or.cond = select i1 %28, i1 true, i1 %29
  br i1 %or.cond, label %.sink.split, label %30

.sink.split:                                      ; preds = %5
  store i64 %27, ptr %12, align 8, !tbaa !15
  br label %30

30:                                               ; preds = %5, %.sink.split
  %31 = phi i64 [ %27, %.sink.split ], [ %4, %5 ]
  %32 = getelementptr inbounds nuw i8, ptr %0, i64 48
  %sext8 = add i64 %1, -4294967296
  %33 = ashr i64 %sext8, 32
  %34 = mul i64 %31, %33
  %35 = getelementptr i8, ptr %3, i64 %34
  %36 = getelementptr i8, ptr %35, i64 %27
  store ptr %36, ptr %32, align 8, !tbaa !22
  call void @llvm.lifetime.start.p0(i64 8, ptr nonnull %6) #15
  store i32 %.sroa.2.0.extract.trunc, ptr %6, align 4, !tbaa !13
  %37 = getelementptr inbounds nuw i8, ptr %6, i64 4
  store i32 %.sroa.0.0.extract.trunc, ptr %37, align 4, !tbaa !13
  call void @llvm.lifetime.start.p0(i64 16, ptr nonnull %7) #15
  store i64 %31, ptr %7, align 16, !tbaa !16
  %38 = getelementptr inbounds nuw i8, ptr %7, i64 8
  store i64 %26, ptr %38, align 8, !tbaa !16
  %39 = call noundef i32 @_ZN2cv20updateContinuityFlagEiiPKiPKm(i32 noundef %9, i32 noundef 2, ptr noundef nonnull %6, ptr noundef nonnull %7)
  store i32 %39, ptr %0, align 8, !tbaa !17
  call void @llvm.lifetime.end.p0(i64 16, ptr nonnull %7) #15
  call void @llvm.lifetime.end.p0(i64 8, ptr nonnull %6) #15
  ret void
}